; Function Attrs: mustprogress nounwind uwtable
define hidden void @_ZN22cofactor_elim_term_iteD2Ev(ptr noundef nonnull align 8 dereferenceable(24) initializes((0, 8)) %0) unnamed_addr #4 align 2 personality ptr @__gxx_personality_v0 {
  store ptr getelementptr inbounds nuw inrange(-16, 16) (i8, ptr @_ZTV22cofactor_elim_term_ite, i64 16), ptr %0, align 8, !tbaa !3
  %2 = getelementptr inbounds nuw i8, ptr %0, i64 8
  %3 = load ptr, ptr %2, align 8, !tbaa !17
  %4 = icmp eq ptr %3, null
  br i1 %4, label %_Z7deallocIN22cofactor_elim_term_ite3impEEvPT_.exit, label %5

5:                                                ; preds = %1
  %6 = getelementptr inbounds nuw i8, ptr %3, i64 8
  tail call void @_ZN10params_refD1Ev(ptr noundef nonnull align 8 dereferenceable(8) %6) #18
  invoke void @_ZN6memory10deallocateEPv(ptr noundef nonnull %3)
          to label %_Z7deallocIN22cofactor_elim_term_ite3impEEvPT_.exit unwind label %8

_Z7deallocIN22cofactor_elim_term_ite3impEEvPT_.exit: ; preds = %1, %5
  %7 = getelementptr inbounds nuw i8, ptr %0, i64 16
  tail call void @_ZN10params_refD1Ev(ptr noundef nonnull align 8 dereferenceable(8) %7) #18
  ret void

8:                                                ; preds = %5
  %9 = landingpad { ptr, i32 }
          catch ptr null
  %10 = extractvalue { ptr, i32 } %9, 0
  tail call void @__clang_call_terminate(ptr %10) #19
  unreachable
}